
lab3c.elf:     file format elf32-avr

Sections:
Idx Name          Size      VMA       LMA       File off  Algn
  0 .data         00000000  00800100  00800100  000002c8  2**0
                  CONTENTS, ALLOC, LOAD, DATA
  1 .text         00000254  00000000  00000000  00000074  2**1
                  CONTENTS, ALLOC, LOAD, READONLY, CODE
  2 .bss          00000002  00800100  00800100  000002c8  2**0
                  ALLOC
  3 .comment      00000030  00000000  00000000  000002c8  2**0
                  CONTENTS, READONLY
  4 .note.gnu.avr.deviceinfo 00000040  00000000  00000000  000002f8  2**2
                  CONTENTS, READONLY
  5 .debug_aranges 00000058  00000000  00000000  00000338  2**0
                  CONTENTS, READONLY, DEBUGGING
  6 .debug_info   0000088b  00000000  00000000  00000390  2**0
                  CONTENTS, READONLY, DEBUGGING
  7 .debug_abbrev 000006e0  00000000  00000000  00000c1b  2**0
                  CONTENTS, READONLY, DEBUGGING
  8 .debug_line   0000049c  00000000  00000000  000012fb  2**0
                  CONTENTS, READONLY, DEBUGGING
  9 .debug_frame  000000c4  00000000  00000000  00001798  2**2
                  CONTENTS, READONLY, DEBUGGING
 10 .debug_str    000003a9  00000000  00000000  0000185c  2**0
                  CONTENTS, READONLY, DEBUGGING
 11 .debug_loc    000001c0  00000000  00000000  00001c05  2**0
                  CONTENTS, READONLY, DEBUGGING
 12 .debug_ranges 00000090  00000000  00000000  00001dc5  2**0
                  CONTENTS, READONLY, DEBUGGING

Disassembly of section .text:

00000000 <__vectors>:
   0:	0c 94 34 00 	jmp	0x68	; 0x68 <__ctors_end>
   4:	0c 94 b0 00 	jmp	0x160	; 0x160 <__vector_1>
   8:	0c 94 d1 00 	jmp	0x1a2	; 0x1a2 <__vector_2>
   c:	0c 94 46 00 	jmp	0x8c	; 0x8c <__bad_interrupt>
  10:	0c 94 46 00 	jmp	0x8c	; 0x8c <__bad_interrupt>
  14:	0c 94 46 00 	jmp	0x8c	; 0x8c <__bad_interrupt>
  18:	0c 94 46 00 	jmp	0x8c	; 0x8c <__bad_interrupt>
  1c:	0c 94 46 00 	jmp	0x8c	; 0x8c <__bad_interrupt>
  20:	0c 94 46 00 	jmp	0x8c	; 0x8c <__bad_interrupt>
  24:	0c 94 46 00 	jmp	0x8c	; 0x8c <__bad_interrupt>
  28:	0c 94 46 00 	jmp	0x8c	; 0x8c <__bad_interrupt>
  2c:	0c 94 46 00 	jmp	0x8c	; 0x8c <__bad_interrupt>
  30:	0c 94 46 00 	jmp	0x8c	; 0x8c <__bad_interrupt>
  34:	0c 94 46 00 	jmp	0x8c	; 0x8c <__bad_interrupt>
  38:	0c 94 46 00 	jmp	0x8c	; 0x8c <__bad_interrupt>
  3c:	0c 94 46 00 	jmp	0x8c	; 0x8c <__bad_interrupt>
  40:	0c 94 46 00 	jmp	0x8c	; 0x8c <__bad_interrupt>
  44:	0c 94 46 00 	jmp	0x8c	; 0x8c <__bad_interrupt>
  48:	0c 94 46 00 	jmp	0x8c	; 0x8c <__bad_interrupt>
  4c:	0c 94 46 00 	jmp	0x8c	; 0x8c <__bad_interrupt>
  50:	0c 94 46 00 	jmp	0x8c	; 0x8c <__bad_interrupt>
  54:	0c 94 46 00 	jmp	0x8c	; 0x8c <__bad_interrupt>
  58:	0c 94 46 00 	jmp	0x8c	; 0x8c <__bad_interrupt>
  5c:	0c 94 46 00 	jmp	0x8c	; 0x8c <__bad_interrupt>
  60:	0c 94 46 00 	jmp	0x8c	; 0x8c <__bad_interrupt>
  64:	0c 94 46 00 	jmp	0x8c	; 0x8c <__bad_interrupt>

00000068 <__ctors_end>:
  68:	11 24       	eor	r1, r1
  6a:	1f be       	out	0x3f, r1	; 63
  6c:	cf ef       	ldi	r28, 0xFF	; 255
  6e:	d8 e0       	ldi	r29, 0x08	; 8
  70:	de bf       	out	0x3e, r29	; 62
  72:	cd bf       	out	0x3d, r28	; 61

00000074 <__do_clear_bss>:
  74:	21 e0       	ldi	r18, 0x01	; 1
  76:	a0 e0       	ldi	r26, 0x00	; 0
  78:	b1 e0       	ldi	r27, 0x01	; 1
  7a:	01 c0       	rjmp	.+2      	; 0x7e <.do_clear_bss_start>

0000007c <.do_clear_bss_loop>:
  7c:	1d 92       	st	X+, r1

0000007e <.do_clear_bss_start>:
  7e:	a2 30       	cpi	r26, 0x02	; 2
  80:	b2 07       	cpc	r27, r18
  82:	e1 f7       	brne	.-8      	; 0x7c <.do_clear_bss_loop>
  84:	0e 94 e2 00 	call	0x1c4	; 0x1c4 <main>
  88:	0c 94 28 01 	jmp	0x250	; 0x250 <_exit>

0000008c <__bad_interrupt>:
  8c:	0c 94 00 00 	jmp	0	; 0x0 <__vectors>

00000090 <CTCModeDelay>:
#include <avr/io.h>
#include <avr/interrupt.h>

int count=0;

void CTCModeDelay(int x){
  90:	fc 01       	movw	r30, r24
	OCR0A=199;
  92:	97 ec       	ldi	r25, 0xC7	; 199
  94:	97 bd       	out	0x27, r25	; 39
	TCCR0A=0x02;
  96:	92 e0       	ldi	r25, 0x02	; 2
  98:	94 bd       	out	0x24, r25	; 36
	TCCR0B=0x01;
  9a:	91 e0       	ldi	r25, 0x01	; 1
  9c:	95 bd       	out	0x25, r25	; 37
	//for every second, 16M/200=80000=800x100
	for(int c=0;c!=x;++c){
  9e:	40 e0       	ldi	r20, 0x00	; 0
  a0:	50 e0       	ldi	r21, 0x00	; 0
  a2:	17 c0       	rjmp	.+46     	; 0xd2 <CTCModeDelay+0x42>
		for(int a=0;a!=100;++a){
			for(int b=0;b!=800;++b){
				while((TIFR0&(1<<1))==0);
  a4:	a9 9b       	sbis	0x15, 1	; 21
  a6:	fe cf       	rjmp	.-4      	; 0xa4 <CTCModeDelay+0x14>
				TIFR0=(1<<OCF0A);
  a8:	92 e0       	ldi	r25, 0x02	; 2
  aa:	95 bb       	out	0x15, r25	; 21
	TCCR0A=0x02;
	TCCR0B=0x01;
	//for every second, 16M/200=80000=800x100
	for(int c=0;c!=x;++c){
		for(int a=0;a!=100;++a){
			for(int b=0;b!=800;++b){
  ac:	2f 5f       	subi	r18, 0xFF	; 255
  ae:	3f 4f       	sbci	r19, 0xFF	; 255
  b0:	02 c0       	rjmp	.+4      	; 0xb6 <CTCModeDelay+0x26>
  b2:	20 e0       	ldi	r18, 0x00	; 0
  b4:	30 e0       	ldi	r19, 0x00	; 0
  b6:	20 32       	cpi	r18, 0x20	; 32
  b8:	83 e0       	ldi	r24, 0x03	; 3
  ba:	38 07       	cpc	r19, r24
  bc:	99 f7       	brne	.-26     	; 0xa4 <CTCModeDelay+0x14>
	OCR0A=199;
	TCCR0A=0x02;
	TCCR0B=0x01;
	//for every second, 16M/200=80000=800x100
	for(int c=0;c!=x;++c){
		for(int a=0;a!=100;++a){
  be:	6f 5f       	subi	r22, 0xFF	; 255
  c0:	7f 4f       	sbci	r23, 0xFF	; 255
  c2:	02 c0       	rjmp	.+4      	; 0xc8 <CTCModeDelay+0x38>
  c4:	60 e0       	ldi	r22, 0x00	; 0
  c6:	70 e0       	ldi	r23, 0x00	; 0
  c8:	64 36       	cpi	r22, 0x64	; 100
  ca:	71 05       	cpc	r23, r1
  cc:	91 f7       	brne	.-28     	; 0xb2 <CTCModeDelay+0x22>
void CTCModeDelay(int x){
	OCR0A=199;
	TCCR0A=0x02;
	TCCR0B=0x01;
	//for every second, 16M/200=80000=800x100
	for(int c=0;c!=x;++c){
  ce:	4f 5f       	subi	r20, 0xFF	; 255
  d0:	5f 4f       	sbci	r21, 0xFF	; 255
  d2:	4e 17       	cp	r20, r30
  d4:	5f 07       	cpc	r21, r31
  d6:	b1 f7       	brne	.-20     	; 0xc4 <CTCModeDelay+0x34>
				while((TIFR0&(1<<1))==0);
				TIFR0=(1<<OCF0A);
			}
		}
	}
	TCCR0B = 0;
  d8:	15 bc       	out	0x25, r1	; 37
  da:	08 95       	ret

000000dc <CTCModeDelay100ms>:
}

void CTCModeDelay100ms(){
	OCR0A=199;
  dc:	87 ec       	ldi	r24, 0xC7	; 199
  de:	87 bd       	out	0x27, r24	; 39
	TCCR0A=0x02;
  e0:	82 e0       	ldi	r24, 0x02	; 2
  e2:	84 bd       	out	0x24, r24	; 36
	TCCR0B=0x01;
  e4:	81 e0       	ldi	r24, 0x01	; 1
  e6:	85 bd       	out	0x25, r24	; 37
	//for every 1/10 second, 1.6M/200=8000=800x10
	for(int a=0;a!=10;++a){
  e8:	40 e0       	ldi	r20, 0x00	; 0
  ea:	50 e0       	ldi	r21, 0x00	; 0
  ec:	0e c0       	rjmp	.+28     	; 0x10a <CTCModeDelay100ms+0x2e>
		for(int b=0;b!=800;++b){
			while((TIFR0&(1<<1))==0);
  ee:	a9 9b       	sbis	0x15, 1	; 21
  f0:	fe cf       	rjmp	.-4      	; 0xee <CTCModeDelay100ms+0x12>
			TIFR0=(1<<OCF0A);
  f2:	22 e0       	ldi	r18, 0x02	; 2
  f4:	25 bb       	out	0x15, r18	; 21
	OCR0A=199;
	TCCR0A=0x02;
	TCCR0B=0x01;
	//for every 1/10 second, 1.6M/200=8000=800x10
	for(int a=0;a!=10;++a){
		for(int b=0;b!=800;++b){
  f6:	01 96       	adiw	r24, 0x01	; 1
  f8:	02 c0       	rjmp	.+4      	; 0xfe <CTCModeDelay100ms+0x22>
  fa:	80 e0       	ldi	r24, 0x00	; 0
  fc:	90 e0       	ldi	r25, 0x00	; 0
  fe:	80 32       	cpi	r24, 0x20	; 32
 100:	23 e0       	ldi	r18, 0x03	; 3
 102:	92 07       	cpc	r25, r18
 104:	a1 f7       	brne	.-24     	; 0xee <CTCModeDelay100ms+0x12>
void CTCModeDelay100ms(){
	OCR0A=199;
	TCCR0A=0x02;
	TCCR0B=0x01;
	//for every 1/10 second, 1.6M/200=8000=800x10
	for(int a=0;a!=10;++a){
 106:	4f 5f       	subi	r20, 0xFF	; 255
 108:	5f 4f       	sbci	r21, 0xFF	; 255
 10a:	4a 30       	cpi	r20, 0x0A	; 10
 10c:	51 05       	cpc	r21, r1
 10e:	a9 f7       	brne	.-22     	; 0xfa <CTCModeDelay100ms+0x1e>
		for(int b=0;b!=800;++b){
			while((TIFR0&(1<<1))==0);
			TIFR0=(1<<OCF0A);
		}
	}
	TCCR0B = 0;
 110:	15 bc       	out	0x25, r1	; 37
 112:	08 95       	ret

00000114 <PORTC_blinking>:
}

void PORTC_blinking(){
 114:	cf 93       	push	r28
 116:	df 93       	push	r29
	PORTC|=(1<<4);
 118:	88 b1       	in	r24, 0x08	; 8
 11a:	80 61       	ori	r24, 0x10	; 16
 11c:	88 b9       	out	0x08, r24	; 8
	for(int i=0;i!=10;++i){
 11e:	c0 e0       	ldi	r28, 0x00	; 0
 120:	d0 e0       	ldi	r29, 0x00	; 0
 122:	07 c0       	rjmp	.+14     	; 0x132 <PORTC_blinking+0x1e>
		CTCModeDelay100ms();
 124:	0e 94 6e 00 	call	0xdc	; 0xdc <CTCModeDelay100ms>
		PORTC^=(1<<4);
 128:	98 b1       	in	r25, 0x08	; 8
 12a:	80 e1       	ldi	r24, 0x10	; 16
 12c:	89 27       	eor	r24, r25
 12e:	88 b9       	out	0x08, r24	; 8
	TCCR0B = 0;
}

void PORTC_blinking(){
	PORTC|=(1<<4);
	for(int i=0;i!=10;++i){
 130:	21 96       	adiw	r28, 0x01	; 1
 132:	ca 30       	cpi	r28, 0x0A	; 10
 134:	d1 05       	cpc	r29, r1
 136:	b1 f7       	brne	.-20     	; 0x124 <PORTC_blinking+0x10>
		CTCModeDelay100ms();
		PORTC^=(1<<4);
	}
}
 138:	df 91       	pop	r29
 13a:	cf 91       	pop	r28
 13c:	08 95       	ret

0000013e <set_interrupt_INT0>:

void set_interrupt_INT0(){
	EIMSK|=0;//INT0,signal from PD2
 13e:	8d b3       	in	r24, 0x1d	; 29
 140:	8d bb       	out	0x1d, r24	; 29
	EICRA|=0x01;//setup ISC0, logical change will trigger interrupt
 142:	e9 e6       	ldi	r30, 0x69	; 105
 144:	f0 e0       	ldi	r31, 0x00	; 0
 146:	80 81       	ld	r24, Z
 148:	81 60       	ori	r24, 0x01	; 1
 14a:	80 83       	st	Z, r24
 14c:	08 95       	ret

0000014e <set_interrupt_INT1>:
}

void set_interrupt_INT1(){
	EIMSK|=0x02;
 14e:	8d b3       	in	r24, 0x1d	; 29
 150:	82 60       	ori	r24, 0x02	; 2
 152:	8d bb       	out	0x1d, r24	; 29
	EICRA|=0x04;
 154:	e9 e6       	ldi	r30, 0x69	; 105
 156:	f0 e0       	ldi	r31, 0x00	; 0
 158:	80 81       	ld	r24, Z
 15a:	84 60       	ori	r24, 0x04	; 4
 15c:	80 83       	st	Z, r24
 15e:	08 95       	ret

00000160 <__vector_1>:

//void set_interrupt_timer0compare(){
	//TIMSK0=(1<<OCIE0A);//enable timer0 compare match
//}

ISR(INT0_vect){
 160:	1f 92       	push	r1
 162:	0f 92       	push	r0
 164:	0f b6       	in	r0, 0x3f	; 63
 166:	0f 92       	push	r0
 168:	11 24       	eor	r1, r1
 16a:	8f 93       	push	r24
 16c:	9f 93       	push	r25
	++count;
 16e:	80 91 00 01 	lds	r24, 0x0100	; 0x800100 <__DATA_REGION_ORIGIN__>
 172:	90 91 01 01 	lds	r25, 0x0101	; 0x800101 <__DATA_REGION_ORIGIN__+0x1>
 176:	01 96       	adiw	r24, 0x01	; 1
 178:	90 93 01 01 	sts	0x0101, r25	; 0x800101 <__DATA_REGION_ORIGIN__+0x1>
 17c:	80 93 00 01 	sts	0x0100, r24	; 0x800100 <__DATA_REGION_ORIGIN__>
	if(count==3){
 180:	03 97       	sbiw	r24, 0x03	; 3
 182:	41 f4       	brne	.+16     	; 0x194 <__vector_1+0x34>
		PORTC^=(1<<0);
 184:	98 b1       	in	r25, 0x08	; 8
 186:	81 e0       	ldi	r24, 0x01	; 1
 188:	89 27       	eor	r24, r25
 18a:	88 b9       	out	0x08, r24	; 8
		count=0;
 18c:	10 92 01 01 	sts	0x0101, r1	; 0x800101 <__DATA_REGION_ORIGIN__+0x1>
 190:	10 92 00 01 	sts	0x0100, r1	; 0x800100 <__DATA_REGION_ORIGIN__>
	}
	//PORTB^=0xFF;
	//PORTC=PORTC^((1<<4)&(1<<5));
}
 194:	9f 91       	pop	r25
 196:	8f 91       	pop	r24
 198:	0f 90       	pop	r0
 19a:	0f be       	out	0x3f, r0	; 63
 19c:	0f 90       	pop	r0
 19e:	1f 90       	pop	r1
 1a0:	18 95       	reti

000001a2 <__vector_2>:

ISR(INT1_vect){
 1a2:	1f 92       	push	r1
 1a4:	0f 92       	push	r0
 1a6:	0f b6       	in	r0, 0x3f	; 63
 1a8:	0f 92       	push	r0
 1aa:	11 24       	eor	r1, r1
 1ac:	8f 93       	push	r24
	PORTB^=0xFF;
 1ae:	85 b1       	in	r24, 0x05	; 5
 1b0:	80 95       	com	r24
 1b2:	85 b9       	out	0x05, r24	; 5
	PORTC=PORTC^((1<<4)&(1<<5));
 1b4:	88 b1       	in	r24, 0x08	; 8
 1b6:	88 b9       	out	0x08, r24	; 8
	//++count;
	//if(count==3){
		//PORTC^=(1<<0);
		//count=0;
	//}
}
 1b8:	8f 91       	pop	r24
 1ba:	0f 90       	pop	r0
 1bc:	0f be       	out	0x3f, r0	; 63
 1be:	0f 90       	pop	r0
 1c0:	1f 90       	pop	r1
 1c2:	18 95       	reti

000001c4 <main>:

int main(void)
{
	/* Replace with your application code */
	DDRB=0x3F;
 1c4:	8f e3       	ldi	r24, 0x3F	; 63
 1c6:	84 b9       	out	0x04, r24	; 4
	DDRC=0xFF;//0x04
 1c8:	8f ef       	ldi	r24, 0xFF	; 255
 1ca:	87 b9       	out	0x07, r24	; 7
	//set_interrupt_timer0compare();
	set_interrupt_INT0();
 1cc:	0e 94 9f 00 	call	0x13e	; 0x13e <set_interrupt_INT0>
	set_interrupt_INT1();
 1d0:	0e 94 a7 00 	call	0x14e	; 0x14e <set_interrupt_INT1>
	sei();
 1d4:	78 94       	sei
	
	while (1) {
		//1
		PORTC|=(1<<4)&(1<<5);//light1(red)(1<<4)&(1<<5)  0x20
 1d6:	88 b1       	in	r24, 0x08	; 8
 1d8:	88 b9       	out	0x08, r24	; 8
		PORTB=0x0C;//light2(green) light3(red)0c
 1da:	8c e0       	ldi	r24, 0x0C	; 12
 1dc:	85 b9       	out	0x05, r24	; 5
		CTCModeDelay(5);
 1de:	85 e0       	ldi	r24, 0x05	; 5
 1e0:	90 e0       	ldi	r25, 0x00	; 0
 1e2:	0e 94 48 00 	call	0x90	; 0x90 <CTCModeDelay>
		
		//2
		PORTC|=(1<<4)&(1<<5);//0x20
 1e6:	88 b1       	in	r24, 0x08	; 8
 1e8:	88 b9       	out	0x08, r24	; 8
		PORTB=0x14;
 1ea:	84 e1       	ldi	r24, 0x14	; 20
 1ec:	85 b9       	out	0x05, r24	; 5
		CTCModeDelay(1);
 1ee:	81 e0       	ldi	r24, 0x01	; 1
 1f0:	90 e0       	ldi	r25, 0x00	; 0
 1f2:	0e 94 48 00 	call	0x90	; 0x90 <CTCModeDelay>
		
		//3
		PORTC|=(1<<4)&(1<<5);
 1f6:	88 b1       	in	r24, 0x08	; 8
 1f8:	88 b9       	out	0x08, r24	; 8
		PORTB=0x24;
 1fa:	c4 e2       	ldi	r28, 0x24	; 36
 1fc:	c5 b9       	out	0x05, r28	; 5
		CTCModeDelay(1);
 1fe:	81 e0       	ldi	r24, 0x01	; 1
 200:	90 e0       	ldi	r25, 0x00	; 0
 202:	0e 94 48 00 	call	0x90	; 0x90 <CTCModeDelay>
		
		//4
		PORTC|=(1<<4)&(1<<5);
 206:	88 b1       	in	r24, 0x08	; 8
 208:	88 b9       	out	0x08, r24	; 8
		PORTB=0x26;
 20a:	86 e2       	ldi	r24, 0x26	; 38
 20c:	85 b9       	out	0x05, r24	; 5
		CTCModeDelay(1);
 20e:	81 e0       	ldi	r24, 0x01	; 1
 210:	90 e0       	ldi	r25, 0x00	; 0
 212:	0e 94 48 00 	call	0x90	; 0x90 <CTCModeDelay>
		
		//5
		PORTB=0x21;
 216:	81 e2       	ldi	r24, 0x21	; 33
 218:	85 b9       	out	0x05, r24	; 5
		PORTC|=(1<<4);//0x10
 21a:	88 b1       	in	r24, 0x08	; 8
 21c:	80 61       	ori	r24, 0x10	; 16
 21e:	88 b9       	out	0x08, r24	; 8
		CTCModeDelay(5);
 220:	85 e0       	ldi	r24, 0x05	; 5
 222:	90 e0       	ldi	r25, 0x00	; 0
 224:	0e 94 48 00 	call	0x90	; 0x90 <CTCModeDelay>
		
		//6
		PORTB=0x22;
 228:	82 e2       	ldi	r24, 0x22	; 34
 22a:	85 b9       	out	0x05, r24	; 5
		PORTC_blinking();
 22c:	0e 94 8a 00 	call	0x114	; 0x114 <PORTC_blinking>
		//1 second delay has already done in function 'PORTC_blinking()'
		
		//7
		PORTB=0x24;
 230:	c5 b9       	out	0x05, r28	; 5
		PORTC|=(1<<4)&(1<<5);
 232:	88 b1       	in	r24, 0x08	; 8
 234:	88 b9       	out	0x08, r24	; 8
		CTCModeDelay(1);
 236:	81 e0       	ldi	r24, 0x01	; 1
 238:	90 e0       	ldi	r25, 0x00	; 0
 23a:	0e 94 48 00 	call	0x90	; 0x90 <CTCModeDelay>
		
		//8
		PORTB=0x34;
 23e:	84 e3       	ldi	r24, 0x34	; 52
 240:	85 b9       	out	0x05, r24	; 5
		PORTC|=(1<<4)&(1<<5);
 242:	88 b1       	in	r24, 0x08	; 8
 244:	88 b9       	out	0x08, r24	; 8
		CTCModeDelay(1);
 246:	81 e0       	ldi	r24, 0x01	; 1
 248:	90 e0       	ldi	r25, 0x00	; 0
 24a:	0e 94 48 00 	call	0x90	; 0x90 <CTCModeDelay>
 24e:	c3 cf       	rjmp	.-122    	; 0x1d6 <main+0x12>

00000250 <_exit>:
 250:	f8 94       	cli

00000252 <__stop_program>:
 252:	ff cf       	rjmp	.-2      	; 0x252 <__stop_program>
